target datalayout = "e-m:e-p270:32:32-p271:32:32-p272:64:64-i64:64-i128:128-f80:128-n8:16:32:64-S128"
target triple = "x86_64-pc-linux-gnu"

%struct.bignum_st = type { ptr, i32, i32, i32, i32 }

; Function Attrs: nounwind uwtable
define i32 @bn_rshift_fixed_top(ptr noundef %0, ptr noundef %1, i32 noundef %2) #0 {
  %4 = alloca i32, align 4
  %5 = alloca ptr, align 8
  %6 = alloca ptr, align 8
  %7 = alloca i32, align 4
  %8 = alloca i32, align 4
  %9 = alloca i32, align 4
  %10 = alloca i32, align 4
  %11 = alloca i32, align 4
  %12 = alloca i32, align 4
  %13 = alloca ptr, align 8
  %14 = alloca ptr, align 8
  %15 = alloca i64, align 8
  %16 = alloca i64, align 8
  %17 = alloca i64, align 8
  %18 = alloca i32, align 4
  store ptr %0, ptr %5, align 8, !tbaa !3
  store ptr %1, ptr %6, align 8, !tbaa !3
  store i32 %2, ptr %7, align 4, !tbaa !17
  call void @llvm.lifetime.start.p0(i64 4, ptr %8) #4
  call void @llvm.lifetime.start.p0(i64 4, ptr %9) #4
  call void @llvm.lifetime.start.p0(i64 4, ptr %10) #4
  call void @llvm.lifetime.start.p0(i64 4, ptr %11) #4
  call void @llvm.lifetime.start.p0(i64 4, ptr %12) #4
  call void @llvm.lifetime.start.p0(i64 8, ptr %13) #4
  call void @llvm.lifetime.start.p0(i64 8, ptr %14) #4
  call void @llvm.lifetime.start.p0(i64 8, ptr %15) #4
  call void @llvm.lifetime.start.p0(i64 8, ptr %16) #4
  call void @llvm.lifetime.start.p0(i64 8, ptr %17) #4
  %19 = load i32, ptr %7, align 4, !tbaa !17
  %20 = sdiv i32 %19, 64
  store i32 %20, ptr %10, align 4, !tbaa !17
  %21 = load i32, ptr %10, align 4, !tbaa !17
  %22 = load ptr, ptr %6, align 8, !tbaa !3
  %23 = getelementptr inbounds nuw %struct.bignum_st, ptr %22, i32 0, i32 1
  %24 = load i32, ptr %23, align 8, !tbaa !12
  %25 = icmp sge i32 %21, %24
  br i1 %25, label %26, label %28

26:                                               ; preds = %3
  %27 = load ptr, ptr %5, align 8, !tbaa !3
  call void @BN_zero_ex(ptr noundef %27)
  store i32 1, ptr %4, align 4
  store i32 1, ptr %18, align 4
  br label %122

28:                                               ; preds = %3
  %29 = load i32, ptr %7, align 4, !tbaa !17
  %30 = urem i32 %29, 64
  store i32 %30, ptr %12, align 4, !tbaa !17
  %31 = load i32, ptr %12, align 4, !tbaa !17
  %32 = sub i32 64, %31
  store i32 %32, ptr %11, align 4, !tbaa !17
  %33 = load i32, ptr %11, align 4, !tbaa !17
  %34 = urem i32 %33, 64
  store i32 %34, ptr %11, align 4, !tbaa !17
  %35 = load i32, ptr %11, align 4, !tbaa !17
  %36 = zext i32 %35 to i64
  %37 = sub i64 0, %36
  store i64 %37, ptr %17, align 8, !tbaa !15
  %38 = load i64, ptr %17, align 8, !tbaa !15
  %39 = lshr i64 %38, 8
  %40 = load i64, ptr %17, align 8, !tbaa !15
  %41 = or i64 %40, %39
  store i64 %41, ptr %17, align 8, !tbaa !15
  %42 = load ptr, ptr %6, align 8, !tbaa !3
  %43 = getelementptr inbounds nuw %struct.bignum_st, ptr %42, i32 0, i32 1
  %44 = load i32, ptr %43, align 8, !tbaa !12
  %45 = load i32, ptr %10, align 4, !tbaa !17
  %46 = sub nsw i32 %44, %45
  store i32 %46, ptr %9, align 4, !tbaa !17
  %47 = load ptr, ptr %5, align 8, !tbaa !3
  %48 = load ptr, ptr %6, align 8, !tbaa !3
  %49 = icmp ne ptr %47, %48
  br i1 %49, label %50, label %56

50:                                               ; preds = %28
  %51 = load ptr, ptr %5, align 8, !tbaa !3
  %52 = load i32, ptr %9, align 4, !tbaa !17
  %53 = call ptr @bn_wexpand(ptr noundef %51, i32 noundef %52)
  %54 = icmp eq ptr %53, null
  br i1 %54, label %55, label %56

55:                                               ; preds = %50
  store i32 0, ptr %4, align 4
  store i32 1, ptr %18, align 4
  br label %122

56:                                               ; preds = %50, %28
  %57 = load ptr, ptr %5, align 8, !tbaa !3
  %58 = getelementptr inbounds nuw %struct.bignum_st, ptr %57, i32 0, i32 0
  %59 = load ptr, ptr %58, align 8, !tbaa !13
  %60 = getelementptr inbounds i64, ptr %59, i64 0
  store ptr %60, ptr %13, align 8, !tbaa !14
  %61 = load ptr, ptr %6, align 8, !tbaa !3
  %62 = getelementptr inbounds nuw %struct.bignum_st, ptr %61, i32 0, i32 0
  %63 = load ptr, ptr %62, align 8, !tbaa !13
  %64 = load i32, ptr %10, align 4, !tbaa !17
  %65 = sext i32 %64 to i64
  %66 = getelementptr inbounds i64, ptr %63, i64 %65
  store ptr %66, ptr %14, align 8, !tbaa !14
  %67 = load ptr, ptr %14, align 8, !tbaa !14
  %68 = getelementptr inbounds i64, ptr %67, i64 0
  %69 = load i64, ptr %68, align 8, !tbaa !15
  store i64 %69, ptr %15, align 8, !tbaa !15
  store i32 0, ptr %8, align 4, !tbaa !17
  br label %70

70:                                               ; preds = %98, %56
  %71 = load i32, ptr %8, align 4, !tbaa !17
  %72 = load i32, ptr %9, align 4, !tbaa !17
  %73 = sub nsw i32 %72, 1
  %74 = icmp slt i32 %71, %73
  br i1 %74, label %75, label %101

75:                                               ; preds = %70
  %76 = load ptr, ptr %14, align 8, !tbaa !14
  %77 = load i32, ptr %8, align 4, !tbaa !17
  %78 = add nsw i32 %77, 1
  %79 = sext i32 %78 to i64
  %80 = getelementptr inbounds i64, ptr %76, i64 %79
  %81 = load i64, ptr %80, align 8, !tbaa !15
  store i64 %81, ptr %16, align 8, !tbaa !15
  %82 = load i64, ptr %15, align 8, !tbaa !15
  %83 = load i32, ptr %12, align 4, !tbaa !17
  %84 = zext i32 %83 to i64
  %85 = lshr i64 %82, %84
  %86 = load i64, ptr %16, align 8, !tbaa !15
  %87 = load i32, ptr %11, align 4, !tbaa !17
  %88 = zext i32 %87 to i64
  %89 = shl i64 %86, %88
  %90 = load i64, ptr %17, align 8, !tbaa !15
  %91 = and i64 %89, %90
  %92 = or i64 %85, %91
  %93 = load ptr, ptr %13, align 8, !tbaa !14
  %94 = load i32, ptr %8, align 4, !tbaa !17
  %95 = sext i32 %94 to i64
  %96 = getelementptr inbounds i64, ptr %93, i64 %95
  store i64 %92, ptr %96, align 8, !tbaa !15
  %97 = load i64, ptr %16, align 8, !tbaa !15
  store i64 %97, ptr %15, align 8, !tbaa !15
  br label %98

98:                                               ; preds = %75
  %99 = load i32, ptr %8, align 4, !tbaa !17
  %100 = add nsw i32 %99, 1
  store i32 %100, ptr %8, align 4, !tbaa !17
  br label %70, !llvm.loop !23

101:                                              ; preds = %70
  %102 = load i64, ptr %15, align 8, !tbaa !15
  %103 = load i32, ptr %12, align 4, !tbaa !17
  %104 = zext i32 %103 to i64
  %105 = lshr i64 %102, %104
  %106 = load ptr, ptr %13, align 8, !tbaa !14
  %107 = load i32, ptr %8, align 4, !tbaa !17
  %108 = sext i32 %107 to i64
  %109 = getelementptr inbounds i64, ptr %106, i64 %108
  store i64 %105, ptr %109, align 8, !tbaa !15
  %110 = load ptr, ptr %6, align 8, !tbaa !3
  %111 = getelementptr inbounds nuw %struct.bignum_st, ptr %110, i32 0, i32 3
  %112 = load i32, ptr %111, align 8, !tbaa !8
  %113 = load ptr, ptr %5, align 8, !tbaa !3
  %114 = getelementptr inbounds nuw %struct.bignum_st, ptr %113, i32 0, i32 3
  store i32 %112, ptr %114, align 8, !tbaa !8
  %115 = load i32, ptr %9, align 4, !tbaa !17
  %116 = load ptr, ptr %5, align 8, !tbaa !3
  %117 = getelementptr inbounds nuw %struct.bignum_st, ptr %116, i32 0, i32 1
  store i32 %115, ptr %117, align 8, !tbaa !12
  %118 = load ptr, ptr %5, align 8, !tbaa !3
  %119 = getelementptr inbounds nuw %struct.bignum_st, ptr %118, i32 0, i32 4
  %120 = load i32, ptr %119, align 4, !tbaa !22
  %121 = or i32 %120, 0
  store i32 %121, ptr %119, align 4, !tbaa !22
  store i32 1, ptr %4, align 4
  store i32 1, ptr %18, align 4
  br label %122

122:                                              ; preds = %101, %55, %26
  call void @llvm.lifetime.end.p0(i64 8, ptr %17) #4
  call void @llvm.lifetime.end.p0(i64 8, ptr %16) #4
  call void @llvm.lifetime.end.p0(i64 8, ptr %15) #4
  call void @llvm.lifetime.end.p0(i64 8, ptr %14) #4
  call void @llvm.lifetime.end.p0(i64 8, ptr %13) #4
  call void @llvm.lifetime.end.p0(i64 4, ptr %12) #4
  call void @llvm.lifetime.end.p0(i64 4, ptr %11) #4
  call void @llvm.lifetime.end.p0(i64 4, ptr %10) #4
  call void @llvm.lifetime.end.p0(i64 4, ptr %9) #4
  call void @llvm.lifetime.end.p0(i64 4, ptr %8) #4
  %123 = load i32, ptr %4, align 4
  ret i32 %123
}