; Function Attrs: nounwind uwtable
define range(i32 0, 2) i32 @bn_rshift_fixed_top(ptr noundef %0, ptr noundef readonly captures(address) %1, i32 noundef %2) local_unnamed_addr #0 {
  %4 = sdiv i32 %2, 64
  %5 = getelementptr inbounds nuw i8, ptr %1, i64 8
  %6 = load i32, ptr %5, align 8, !tbaa !10
  %.not = icmp slt i32 %4, %6
  br i1 %.not, label %8, label %7

7:                                                ; preds = %3
  tail call void @BN_zero_ex(ptr noundef %0) #4
  br label %44

8:                                                ; preds = %3
  %9 = and i32 %2, 63
  %10 = sub i32 0, %2
  %11 = and i32 %10, 63
  %12 = zext nneg i32 %11 to i64
  %13 = sub nsw i64 0, %12
  %14 = lshr i64 %13, 8
  %15 = or i64 %14, %13
  %16 = sub i32 %6, %4
  %.not47 = icmp eq ptr %0, %1
  br i1 %.not47, label %20, label %17

17:                                               ; preds = %8
  %18 = tail call ptr @bn_wexpand(ptr noundef %0, i32 noundef %16) #4
  %19 = icmp eq ptr %18, null
  br i1 %19, label %44, label %20

20:                                               ; preds = %17, %8
  %21 = load ptr, ptr %0, align 8, !tbaa !11
  %22 = load ptr, ptr %1, align 8, !tbaa !11
  %23 = sext i32 %4 to i64
  %24 = getelementptr inbounds i64, ptr %22, i64 %23
  %25 = load i64, ptr %24, align 8, !tbaa !12
  %26 = add i32 %16, -1
  %27 = icmp sgt i32 %16, 1
  %28 = zext nneg i32 %9 to i64
  br i1 %27, label %.lr.ph, label %._crit_edge

.lr.ph:                                           ; preds = %20
  %wide.trip.count = zext nneg i32 %26 to i64
  br label %29

29:                                               ; preds = %.lr.ph, %29
  %indvars.iv = phi i64 [ 0, %.lr.ph ], [ %indvars.iv.next, %29 ]
  %.04249 = phi i64 [ %25, %.lr.ph ], [ %31, %29 ]
  %indvars.iv.next = add nuw nsw i64 %indvars.iv, 1
  %30 = getelementptr inbounds nuw i64, ptr %24, i64 %indvars.iv.next
  %31 = load i64, ptr %30, align 8, !tbaa !12
  %32 = lshr i64 %.04249, %28
  %33 = shl i64 %31, %12
  %34 = and i64 %33, %15
  %35 = or i64 %34, %32
  %36 = getelementptr inbounds nuw i64, ptr %21, i64 %indvars.iv
  store i64 %35, ptr %36, align 8, !tbaa !12
  %exitcond.not = icmp eq i64 %indvars.iv.next, %wide.trip.count
  br i1 %exitcond.not, label %._crit_edge.loopexit, label %29, !llvm.loop !18

._crit_edge.loopexit:                             ; preds = %29
  %37 = zext nneg i32 %26 to i64
  br label %._crit_edge

._crit_edge:                                      ; preds = %20, %._crit_edge.loopexit
  %.043.lcssa = phi i64 [ %37, %._crit_edge.loopexit ], [ 0, %20 ]
  %.042.lcssa = phi i64 [ %31, %._crit_edge.loopexit ], [ %25, %20 ]
  %38 = lshr i64 %.042.lcssa, %28
  %39 = getelementptr inbounds nuw i64, ptr %21, i64 %.043.lcssa
  store i64 %38, ptr %39, align 8, !tbaa !12
  %40 = getelementptr inbounds nuw i8, ptr %1, i64 16
  %41 = load i32, ptr %40, align 8, !tbaa !3
  %42 = getelementptr inbounds nuw i8, ptr %0, i64 16
  store i32 %41, ptr %42, align 8, !tbaa !3
  %43 = getelementptr inbounds nuw i8, ptr %0, i64 8
  store i32 %16, ptr %43, align 8, !tbaa !10
  br label %44

44:                                               ; preds = %17, %._crit_edge, %7
  %.0 = phi i32 [ 1, %7 ], [ 1, %._crit_edge ], [ 0, %17 ]
  ret i32 %.0
}